; Function Attrs: nounwind uwtable
define hidden void @UnrefPhysicalCamera(ptr noundef %0) local_unnamed_addr #1 {
  %2 = getelementptr inbounds nuw i8, ptr %0, i64 20
  %3 = tail call i32 @SDL_AddAtomicInt_REAL(ptr noundef nonnull %2, i32 noundef -1) #11
  %4 = icmp eq i32 %3, 1
  br i1 %4, label %5, label %17

5:                                                ; preds = %1
  %6 = load ptr, ptr getelementptr inbounds nuw (i8, ptr @camera_driver, i64 88), align 8
  tail call void @SDL_LockRWLockForWriting_REAL(ptr noundef %6) #11
  %7 = load ptr, ptr getelementptr inbounds nuw (i8, ptr @camera_driver, i64 96), align 8
  %8 = getelementptr inbounds nuw i8, ptr %0, i64 108
  %9 = load i32, ptr %8, align 4
  %10 = zext i32 %9 to i64
  %11 = inttoptr i64 %10 to ptr
  %12 = tail call zeroext i1 @SDL_RemoveFromHashTable(ptr noundef %7, ptr noundef %11) #11
  br i1 %12, label %13, label %15

13:                                               ; preds = %5
  %14 = tail call i32 @SDL_AddAtomicInt_REAL(ptr noundef nonnull getelementptr inbounds nuw (i8, ptr @camera_driver, i64 128), i32 noundef -1) #11
  br label %15

15:                                               ; preds = %13, %5
  %16 = load ptr, ptr getelementptr inbounds nuw (i8, ptr @camera_driver, i64 88), align 8
  tail call void @SDL_UnlockRWLock_REAL(ptr noundef %16) #11
  br label %17

17:                                               ; preds = %15, %1
  ret void
}